target datalayout = "e-m:e-p270:32:32-p271:32:32-p272:64:64-i64:64-i128:128-f80:128-n8:16:32:64-S128"
target triple = "x86_64-pc-linux-gnu"

%struct.prov_cipher_ctx_st = type { [16 x i8], [16 x i8], [16 x i8], ptr, %union.anon, i32, i64, i64, i64, i64, i32, i8, i32, ptr, i32, i64, i32, i64, i32, ptr, ptr, ptr }
%union.anon = type { ptr }
%struct.prov_cipher_hw_st = type { ptr, ptr, ptr }

@.str = private unnamed_addr constant [58 x i8] c"../openssl/providers/implementations/ciphers/cipher_des.c\00", align 1
@__func__.des_init = private unnamed_addr constant [9 x i8] c"des_init\00", align 1

; Function Attrs: nounwind uwtable
define internal i32 @des_init(ptr noundef %0, ptr noundef %1, i64 noundef %2, ptr noundef %3, i64 noundef %4, ptr noundef %5, i32 noundef %6) #0 {
  %8 = alloca i32, align 4
  %9 = alloca ptr, align 8
  %10 = alloca ptr, align 8
  %11 = alloca i64, align 8
  %12 = alloca ptr, align 8
  %13 = alloca i64, align 8
  %14 = alloca ptr, align 8
  %15 = alloca i32, align 4
  %16 = alloca ptr, align 8
  %17 = alloca i32, align 4
  store ptr %0, ptr %9, align 8, !tbaa !3
  store ptr %1, ptr %10, align 8, !tbaa !7
  store i64 %2, ptr %11, align 8, !tbaa !9
  store ptr %3, ptr %12, align 8, !tbaa !7
  store i64 %4, ptr %13, align 8, !tbaa !9
  store ptr %5, ptr %14, align 8, !tbaa !11
  store i32 %6, ptr %15, align 4, !tbaa !27
  call void @llvm.lifetime.start.p0(i64 8, ptr %16) #4
  %18 = load ptr, ptr %9, align 8, !tbaa !3
  store ptr %18, ptr %16, align 8, !tbaa !23
  %19 = call i32 @ossl_prov_is_running()
  %20 = icmp ne i32 %19, 0
  br i1 %20, label %22, label %21

21:                                               ; preds = %7
  store i32 0, ptr %8, align 4
  store i32 1, ptr %17, align 4
  br label %97

22:                                               ; preds = %7
  %23 = load ptr, ptr %16, align 8, !tbaa !23
  %24 = getelementptr inbounds nuw %struct.prov_cipher_ctx_st, ptr %23, i32 0, i32 18
  store i32 0, ptr %24, align 8, !tbaa !28
  %25 = load ptr, ptr %16, align 8, !tbaa !23
  %26 = getelementptr inbounds nuw %struct.prov_cipher_ctx_st, ptr %25, i32 0, i32 9
  store i64 0, ptr %26, align 8, !tbaa !29
  %27 = load i32, ptr %15, align 4, !tbaa !27
  %28 = load ptr, ptr %16, align 8, !tbaa !23
  %29 = getelementptr inbounds nuw %struct.prov_cipher_ctx_st, ptr %28, i32 0, i32 11
  %30 = trunc i32 %27 to i8
  %31 = load i8, ptr %29, align 4
  %32 = and i8 %30, 1
  %33 = shl i8 %32, 1
  %34 = and i8 %31, -3
  %35 = or i8 %34, %33
  store i8 %35, ptr %29, align 4
  %36 = load ptr, ptr %12, align 8, !tbaa !7
  %37 = icmp ne ptr %36, null
  br i1 %37, label %38, label %46

38:                                               ; preds = %22
  %39 = load ptr, ptr %16, align 8, !tbaa !23
  %40 = load ptr, ptr %12, align 8, !tbaa !7
  %41 = load i64, ptr %13, align 8, !tbaa !9
  %42 = call i32 @ossl_cipher_generic_initiv(ptr noundef %39, ptr noundef %40, i64 noundef %41)
  %43 = icmp ne i32 %42, 0
  br i1 %43, label %45, label %44

44:                                               ; preds = %38
  store i32 0, ptr %8, align 4
  store i32 1, ptr %17, align 4
  br label %97

45:                                               ; preds = %38
  br label %65

46:                                               ; preds = %22
  %47 = load ptr, ptr %16, align 8, !tbaa !23
  %48 = getelementptr inbounds nuw %struct.prov_cipher_ctx_st, ptr %47, i32 0, i32 11
  %49 = load i8, ptr %48, align 4
  %50 = lshr i8 %49, 2
  %51 = and i8 %50, 1
  %52 = zext i8 %51 to i32
  %53 = icmp ne i32 %52, 0
  br i1 %53, label %54, label %64

54:                                               ; preds = %46
  %55 = load ptr, ptr %16, align 8, !tbaa !23
  %56 = getelementptr inbounds nuw %struct.prov_cipher_ctx_st, ptr %55, i32 0, i32 2
  %57 = getelementptr inbounds [16 x i8], ptr %56, i64 0, i64 0
  %58 = load ptr, ptr %16, align 8, !tbaa !23
  %59 = getelementptr inbounds nuw %struct.prov_cipher_ctx_st, ptr %58, i32 0, i32 0
  %60 = getelementptr inbounds [16 x i8], ptr %59, i64 0, i64 0
  %61 = load ptr, ptr %16, align 8, !tbaa !23
  %62 = getelementptr inbounds nuw %struct.prov_cipher_ctx_st, ptr %61, i32 0, i32 7
  %63 = load i64, ptr %62, align 8, !tbaa !30
  call void @llvm.memcpy.p0.p0.i64(ptr align 8 %57, ptr align 8 %60, i64 %63, i1 false)
  br label %64

64:                                               ; preds = %54, %46
  br label %65

65:                                               ; preds = %64, %45
  %66 = load ptr, ptr %10, align 8, !tbaa !7
  %67 = icmp ne ptr %66, null
  br i1 %67, label %68, label %93

68:                                               ; preds = %65
  %69 = load i64, ptr %11, align 8, !tbaa !9
  %70 = load ptr, ptr %16, align 8, !tbaa !23
  %71 = getelementptr inbounds nuw %struct.prov_cipher_ctx_st, ptr %70, i32 0, i32 6
  %72 = load i64, ptr %71, align 8, !tbaa !31
  %73 = icmp ne i64 %69, %72
  br i1 %73, label %74, label %75

74:                                               ; preds = %68
  call void @ERR_new()
  call void @ERR_set_debug(ptr noundef @.str, i32 noundef 94, ptr noundef @__func__.des_init)
  call void (i32, i32, ptr, ...) @ERR_set_error(i32 noundef 57, i32 noundef 105, ptr noundef null)
  store i32 0, ptr %8, align 4
  store i32 1, ptr %17, align 4
  br label %97

75:                                               ; preds = %68
  %76 = load ptr, ptr %16, align 8, !tbaa !23
  %77 = getelementptr inbounds nuw %struct.prov_cipher_ctx_st, ptr %76, i32 0, i32 19
  %78 = load ptr, ptr %77, align 8, !tbaa !32
  %79 = getelementptr inbounds nuw %struct.prov_cipher_hw_st, ptr %78, i32 0, i32 0
  %80 = load ptr, ptr %79, align 8, !tbaa !33
  %81 = load ptr, ptr %16, align 8, !tbaa !23
  %82 = load ptr, ptr %10, align 8, !tbaa !7
  %83 = load i64, ptr %11, align 8, !tbaa !9
  %84 = call i32 %80(ptr noundef %81, ptr noundef %82, i64 noundef %83)
  %85 = icmp ne i32 %84, 0
  br i1 %85, label %87, label %86

86:                                               ; preds = %75
  store i32 0, ptr %8, align 4
  store i32 1, ptr %17, align 4
  br label %97

87:                                               ; preds = %75
  %88 = load ptr, ptr %16, align 8, !tbaa !23
  %89 = getelementptr inbounds nuw %struct.prov_cipher_ctx_st, ptr %88, i32 0, i32 11
  %90 = load i8, ptr %89, align 4
  %91 = and i8 %90, -9
  %92 = or i8 %91, 8
  store i8 %92, ptr %89, align 4
  br label %93

93:                                               ; preds = %87, %65
  %94 = load ptr, ptr %16, align 8, !tbaa !23
  %95 = load ptr, ptr %14, align 8, !tbaa !11
  %96 = call i32 @ossl_cipher_generic_set_ctx_params(ptr noundef %94, ptr noundef %95)
  store i32 %96, ptr %8, align 4
  store i32 1, ptr %17, align 4
  br label %97

97:                                               ; preds = %93, %86, %74, %44, %21
  call void @llvm.lifetime.end.p0(i64 8, ptr %16) #4
  %98 = load i32, ptr %8, align 4
  ret i32 %98
}