; Function Attrs: nounwind uwtable
define internal fastcc i32 @des_init(ptr noundef %0, ptr noundef %1, i64 noundef %2, ptr noundef %3, i64 noundef %4, ptr noundef %5, i32 noundef range(i32 0, 2) %6) unnamed_addr #0 {
  %8 = tail call i32 @ossl_prov_is_running() #4
  %.not = icmp eq i32 %8, 0
  br i1 %.not, label %41, label %9

9:                                                ; preds = %7
  %10 = getelementptr inbounds nuw i8, ptr %0, i64 160
  store i32 0, ptr %10, align 8, !tbaa !20
  %11 = getelementptr inbounds nuw i8, ptr %0, i64 96
  store i64 0, ptr %11, align 8, !tbaa !21
  %12 = getelementptr inbounds nuw i8, ptr %0, i64 108
  %13 = trunc nuw nsw i32 %6 to i8
  %14 = load i8, ptr %12, align 4
  %15 = shl nuw nsw i8 %13, 1
  %16 = and i8 %14, -3
  %17 = or disjoint i8 %16, %15
  store i8 %17, ptr %12, align 4
  %.not26 = icmp eq ptr %3, null
  br i1 %.not26, label %20, label %18

18:                                               ; preds = %9
  %19 = tail call i32 @ossl_cipher_generic_initiv(ptr noundef nonnull %0, ptr noundef nonnull %3, i64 noundef %4) #4
  %.not28 = icmp eq i32 %19, 0
  br i1 %.not28, label %41, label %26

20:                                               ; preds = %9
  %21 = and i8 %14, 4
  %.not27 = icmp eq i8 %21, 0
  br i1 %.not27, label %26, label %22

22:                                               ; preds = %20
  %23 = getelementptr inbounds nuw i8, ptr %0, i64 32
  %24 = getelementptr inbounds nuw i8, ptr %0, i64 80
  %25 = load i64, ptr %24, align 8, !tbaa !22
  tail call void @llvm.memcpy.p0.p0.i64(ptr nonnull align 8 %23, ptr nonnull align 8 %0, i64 %25, i1 false)
  br label %26

26:                                               ; preds = %20, %22, %18
  %.not29 = icmp eq ptr %1, null
  br i1 %.not29, label %39, label %27

27:                                               ; preds = %26
  %28 = getelementptr inbounds nuw i8, ptr %0, i64 72
  %29 = load i64, ptr %28, align 8, !tbaa !18
  %.not30 = icmp eq i64 %2, %29
  br i1 %.not30, label %31, label %30

30:                                               ; preds = %27
  tail call void @ERR_new() #4
  tail call void @ERR_set_debug(ptr noundef nonnull @.str, i32 noundef 94, ptr noundef nonnull @__func__.des_init) #4
  tail call void (i32, i32, ptr, ...) @ERR_set_error(i32 noundef 57, i32 noundef 105, ptr noundef null) #4
  br label %41

31:                                               ; preds = %27
  %32 = getelementptr inbounds nuw i8, ptr %0, i64 168
  %33 = load ptr, ptr %32, align 8, !tbaa !23
  %34 = load ptr, ptr %33, align 8, !tbaa !24
  %35 = tail call i32 %34(ptr noundef nonnull %0, ptr noundef nonnull %1, i64 noundef %2) #4
  %.not31 = icmp eq i32 %35, 0
  br i1 %.not31, label %41, label %36

36:                                               ; preds = %31
  %37 = load i8, ptr %12, align 4
  %38 = or i8 %37, 8
  store i8 %38, ptr %12, align 4
  br label %39

39:                                               ; preds = %36, %26
  %40 = tail call i32 @ossl_cipher_generic_set_ctx_params(ptr noundef nonnull %0, ptr noundef %5) #4
  br label %41

41:                                               ; preds = %31, %18, %7, %39, %30
  %.0 = phi i32 [ 0, %30 ], [ %40, %39 ], [ 0, %7 ], [ 0, %18 ], [ 0, %31 ]
  ret i32 %.0
}